; Function Attrs: mustprogress uwtable
define void @_ZN6icu_7725SimpleNumberFormatFactoryC2ERKNS_6LocaleEa(ptr noundef nonnull align 8 dereferenceable(80) initializes((0, 9), (16, 26)) %0, ptr noundef nonnull align 8 dereferenceable(217) %1, i8 noundef signext %2) unnamed_addr #1 align 2 personality ptr @__gxx_personality_v0 {
  store ptr getelementptr inbounds nuw inrange(-16, 48) (i8, ptr @_ZTVN6icu_7725SimpleNumberFormatFactoryE, i64 16), ptr %0, align 8, !tbaa !15
  %4 = getelementptr inbounds nuw i8, ptr %0, i64 8
  store i8 %2, ptr %4, align 8, !tbaa !17
  %5 = getelementptr inbounds nuw i8, ptr %0, i64 16
  store ptr getelementptr inbounds nuw inrange(-16, 88) (i8, ptr @_ZTVN6icu_7713UnicodeStringE, i64 16), ptr %5, align 8, !tbaa !15
  %6 = getelementptr inbounds nuw i8, ptr %0, i64 24
  store i16 2, ptr %6, align 8, !tbaa !23
  %7 = invoke noundef nonnull align 8 dereferenceable(64) ptr @_ZN6icu_7713LocaleUtility18initNameFromLocaleERKNS_6LocaleERNS_13UnicodeStringE(ptr noundef nonnull align 8 dereferenceable(217) %1, ptr noundef nonnull align 8 dereferenceable(64) %5)
          to label %8 unwind label %9

8:                                                ; preds = %3
  ret void

9:                                                ; preds = %3
  %10 = landingpad { ptr, i32 }
          cleanup
  tail call void @_ZN6icu_7713UnicodeStringD1Ev(ptr noundef nonnull align 8 dereferenceable(64) %5) #22
  tail call void @_ZN6icu_777UObjectD2Ev(ptr noundef nonnull align 8 dereferenceable(8) %0) #22
  resume { ptr, i32 } %10
}